target datalayout = "e-m:e-p270:32:32-p271:32:32-p272:64:64-i64:64-i128:128-f80:128-n8:16:32:64-S128"
target triple = "x86_64-pc-linux-gnu"

%struct.cli_bc_ctx = type { i8, i16, i32, ptr, ptr, i32, i32, ptr, ptr, ptr, i32, i32, i64, ptr, ptr, ptr, %struct.cli_bc_hooks, %struct.cli_exe_info, [64 x i32], [64 x i32], i32, ptr, ptr, i32, i32, i32, i32, ptr, i32, ptr, ptr, i32, i32, i32, i32, i32, i32, ptr, ptr, ptr, ptr, ptr, ptr, ptr, i32, i32, i32, i32, ptr, ptr, ptr, ptr, ptr, i32, i32, i32, i32, ptr, ptr, ptr, ptr, i32, i32, i32, ptr, i32, ptr, i32, i32, ptr, i32 }
%struct.cli_bc_hooks = type { ptr, ptr, ptr, ptr, ptr }
%struct.cli_exe_info = type { ptr, i32, i32, i16, i32, i32, %struct.cli_hashset, i32, i32, i32, i32, i32, i32, i32, i32, i32, %struct.pe_image_file_hdr, %union.anon, [16 x %struct.pe_image_data_dir] }
%struct.cli_hashset = type { ptr, ptr, ptr, i32, i32, i32, i32 }
%struct.pe_image_file_hdr = type { i32, i16, i16, i32, i32, i32, i16, i16 }
%union.anon = type { %struct.pe_image_optional_hdr64 }
%struct.pe_image_optional_hdr64 = type { i16, i8, i8, i32, i32, i32, i32, i32, i64, i32, i32, i16, i16, i16, i16, i16, i16, i32, i32, i32, i32, i16, i16, i64, i64, i64, i64, i32, i32 }
%struct.pe_image_data_dir = type { i32, i32 }

; Function Attrs: nounwind uwtable
define i32 @cli_bcapi_trace_ptr(ptr noundef %0, ptr noundef %1, i32 noundef %2) #0 {
  %4 = alloca i32, align 4
  %5 = alloca ptr, align 8
  %6 = alloca ptr, align 8
  %7 = alloca i32, align 4
  store ptr %0, ptr %5, align 8
  store ptr %1, ptr %6, align 8
  store i32 %2, ptr %7, align 4
  %8 = load ptr, ptr %5, align 8
  %9 = getelementptr inbounds %struct.cli_bc_ctx, ptr %8, i32 0, i32 44
  %10 = load i32, ptr %9, align 8
  %11 = icmp ult i32 %10, 7
  %12 = xor i1 %11, true
  %13 = xor i1 %12, true
  %14 = zext i1 %13 to i32
  %15 = sext i32 %14 to i64
  %16 = icmp ne i64 %15, 0
  br i1 %16, label %17, label %18

17:                                               ; preds = %3
  store i32 0, ptr %4, align 4
  br label %48

18:                                               ; preds = %3
  %19 = load ptr, ptr %5, align 8
  %20 = getelementptr inbounds %struct.cli_bc_ctx, ptr %19, i32 0, i32 44
  %21 = load i32, ptr %20, align 8
  %22 = and i32 %21, 128
  %23 = icmp ne i32 %22, 0
  br i1 %23, label %24, label %36

24:                                               ; preds = %18
  %25 = load ptr, ptr %5, align 8
  %26 = getelementptr inbounds %struct.cli_bc_ctx, ptr %25, i32 0, i32 44
  %27 = load i32, ptr %26, align 8
  %28 = and i32 %27, 127
  %29 = icmp ult i32 %28, 2
  br i1 %29, label %30, label %31

30:                                               ; preds = %24
  store i32 0, ptr %4, align 4
  br label %48

31:                                               ; preds = %24
  %32 = load ptr, ptr %5, align 8
  %33 = getelementptr inbounds %struct.cli_bc_ctx, ptr %32, i32 0, i32 37
  %34 = load ptr, ptr %33, align 8
  %35 = load ptr, ptr %5, align 8
  call void %34(ptr noundef %35, i32 noundef 2)
  br label %36

36:                                               ; preds = %31, %18
  %37 = load ptr, ptr %5, align 8
  %38 = getelementptr inbounds %struct.cli_bc_ctx, ptr %37, i32 0, i32 40
  %39 = load ptr, ptr %38, align 8
  %40 = icmp ne ptr %39, null
  br i1 %40, label %41, label %47

41:                                               ; preds = %36
  %42 = load ptr, ptr %5, align 8
  %43 = getelementptr inbounds %struct.cli_bc_ctx, ptr %42, i32 0, i32 40
  %44 = load ptr, ptr %43, align 8
  %45 = load ptr, ptr %5, align 8
  %46 = load ptr, ptr %6, align 8
  call void %44(ptr noundef %45, ptr noundef %46)
  br label %47

47:                                               ; preds = %41, %36
  store i32 0, ptr %4, align 4
  br label %48

48:                                               ; preds = %47, %30, %17
  %49 = load i32, ptr %4, align 4
  ret i32 %49
}