; Function Attrs: nounwind uwtable
define noundef i32 @cli_bcapi_trace_ptr(ptr noundef %0, ptr noundef %1, i32 noundef %2) local_unnamed_addr #1 {
  %4 = getelementptr inbounds i8, ptr %0, i64 1176
  %5 = load i32, ptr %4, align 8
  %6 = icmp ult i32 %5, 7
  br i1 %6, label %19, label %7

7:                                                ; preds = %3
  %8 = and i32 %5, 128
  %.not = icmp eq i32 %8, 0
  br i1 %.not, label %15, label %9

9:                                                ; preds = %7
  %10 = and i32 %5, 126
  %11 = icmp eq i32 %10, 0
  br i1 %11, label %19, label %12

12:                                               ; preds = %9
  %13 = getelementptr inbounds i8, ptr %0, i64 1120
  %14 = load ptr, ptr %13, align 8
  tail call void %14(ptr noundef nonnull %0, i32 noundef 2) #29
  br label %15

15:                                               ; preds = %12, %7
  %16 = getelementptr inbounds i8, ptr %0, i64 1144
  %17 = load ptr, ptr %16, align 8
  %.not10 = icmp eq ptr %17, null
  br i1 %.not10, label %19, label %18

18:                                               ; preds = %15
  tail call void %17(ptr noundef nonnull %0, ptr noundef %1) #29
  br label %19

19:                                               ; preds = %15, %18, %9, %3
  ret i32 0
}